target datalayout = "e-m:e-p270:32:32-p271:32:32-p272:64:64-i64:64-i128:128-f80:128-n8:16:32:64-S128"
target triple = "x86_64-pc-linux-gnu"

%struct.DdManager = type { %struct.DdNode, ptr, ptr, ptr, ptr, ptr, ptr, ptr, i32, i32, double, double, double, i32, i32, i32, i32, i32, i32, ptr, ptr, %struct.DdSubtable, i32, i32, i32, i32, i32, i32, i32, double, i32, i32, i32, ptr, i64, double, i32, ptr, ptr, ptr, ptr, ptr, ptr, ptr, i32, ptr, ptr, ptr, ptr, ptr, ptr, i32, i32, i32, double, i32, i32, i32, i32, double, double, i32, i32, i32, i32, i32, i32, i32, i32, i32, ptr, ptr, i32, i32, i32, i32, i32, i32, ptr, ptr, ptr, ptr, ptr, ptr, ptr, ptr, i32, i64, i64, i64, i32, i64, i64, double, double, double, double, double, double, i32, ptr, ptr, i64 }
%struct.DdNode = type { i32, i32, ptr, %union.anon, i64 }
%union.anon = type { %struct.DdChildren }
%struct.DdChildren = type { ptr, ptr }
%struct.DdSubtable = type { ptr, i32, i32, i32, i32, i32, i32, i32, i32, i32, i32, i32 }

@originalSize = internal global i32 0, align 4

; Function Attrs: nounwind uwtable
define internal i32 @ddIsVarHandled(ptr noundef %0, i32 noundef %1) #0 {
  %3 = alloca i32, align 4
  %4 = alloca ptr, align 8
  %5 = alloca i32, align 4
  store ptr %0, ptr %4, align 8, !tbaa !3
  store i32 %1, ptr %5, align 4, !tbaa !8
  %6 = load i32, ptr %5, align 4, !tbaa !8
  %7 = load ptr, ptr %4, align 8, !tbaa !3
  %8 = getelementptr inbounds nuw %struct.DdManager, ptr %7, i32 0, i32 15
  %9 = load i32, ptr %8, align 8, !tbaa !10
  %10 = icmp sge i32 %6, %9
  br i1 %10, label %14, label %11

11:                                               ; preds = %2
  %12 = load i32, ptr %5, align 4, !tbaa !8
  %13 = icmp slt i32 %12, 0
  br i1 %13, label %14, label %15

14:                                               ; preds = %11, %2
  store i32 -1, ptr %3, align 4
  br label %30

15:                                               ; preds = %11
  %16 = load ptr, ptr %4, align 8, !tbaa !3
  %17 = getelementptr inbounds nuw %struct.DdManager, ptr %16, i32 0, i32 19
  %18 = load ptr, ptr %17, align 8, !tbaa !34
  %19 = load ptr, ptr %4, align 8, !tbaa !3
  %20 = getelementptr inbounds nuw %struct.DdManager, ptr %19, i32 0, i32 37
  %21 = load ptr, ptr %20, align 8, !tbaa !27
  %22 = load i32, ptr %5, align 4, !tbaa !8
  %23 = sext i32 %22 to i64
  %24 = getelementptr inbounds i32, ptr %21, i64 %23
  %25 = load i32, ptr %24, align 4, !tbaa !8
  %26 = sext i32 %25 to i64
  %27 = getelementptr inbounds %struct.DdSubtable, ptr %18, i64 %26
  %28 = getelementptr inbounds nuw %struct.DdSubtable, ptr %27, i32 0, i32 10
  %29 = load i32, ptr %28, align 4, !tbaa !81
  store i32 %29, ptr %3, align 4
  br label %30

30:                                               ; preds = %15, %14
  %31 = load i32, ptr %3, align 4
  ret i32 %31
}

; Function Attrs: nounwind uwtable
define internal i32 @ddVarGroupCheck(ptr noundef %0, i32 noundef %1, i32 noundef %2) #0 {
  %4 = alloca i32, align 4
  %5 = alloca ptr, align 8
  %6 = alloca i32, align 4
  %7 = alloca i32, align 4
  %8 = alloca i32, align 4
  %9 = alloca i32, align 4
  %10 = alloca i32, align 4
  store ptr %0, ptr %5, align 8, !tbaa !3
  store i32 %1, ptr %6, align 4, !tbaa !8
  store i32 %2, ptr %7, align 4, !tbaa !8
  call void @llvm.lifetime.start.p0(i64 4, ptr %8) #6
  %11 = load ptr, ptr %5, align 8, !tbaa !3
  %12 = getelementptr inbounds nuw %struct.DdManager, ptr %11, i32 0, i32 39
  %13 = load ptr, ptr %12, align 8, !tbaa !30
  %14 = load i32, ptr %6, align 4, !tbaa !8
  %15 = sext i32 %14 to i64
  %16 = getelementptr inbounds i32, ptr %13, i64 %15
  %17 = load i32, ptr %16, align 4, !tbaa !8
  store i32 %17, ptr %8, align 4, !tbaa !8
  call void @llvm.lifetime.start.p0(i64 4, ptr %9) #6
  %18 = load ptr, ptr %5, align 8, !tbaa !3
  %19 = getelementptr inbounds nuw %struct.DdManager, ptr %18, i32 0, i32 39
  %20 = load ptr, ptr %19, align 8, !tbaa !30
  %21 = load i32, ptr %7, align 4, !tbaa !8
  %22 = sext i32 %21 to i64
  %23 = getelementptr inbounds i32, ptr %20, i64 %22
  %24 = load i32, ptr %23, align 4, !tbaa !8
  store i32 %24, ptr %9, align 4, !tbaa !8
  %25 = load ptr, ptr %5, align 8, !tbaa !3
  %26 = load i32, ptr %8, align 4, !tbaa !8
  %27 = call i32 @Cudd_bddIsVarToBeUngrouped(ptr noundef %25, i32 noundef %26)
  %28 = icmp ne i32 %27, 0
  br i1 %28, label %29, label %30

29:                                               ; preds = %3
  store i32 0, ptr %4, align 4
  store i32 1, ptr %10, align 4
  br label %71

30:                                               ; preds = %3
  %31 = load ptr, ptr %5, align 8, !tbaa !3
  %32 = load i32, ptr %8, align 4, !tbaa !8
  %33 = call i32 @Cudd_bddReadPairIndex(ptr noundef %31, i32 noundef %32)
  %34 = load i32, ptr %9, align 4, !tbaa !8
  %35 = icmp eq i32 %33, %34
  br i1 %35, label %36, label %70

36:                                               ; preds = %30
  %37 = load ptr, ptr %5, align 8, !tbaa !3
  %38 = load i32, ptr %8, align 4, !tbaa !8
  %39 = call i32 @ddIsVarHandled(ptr noundef %37, i32 noundef %38)
  %40 = icmp ne i32 %39, 0
  br i1 %40, label %46, label %41

41:                                               ; preds = %36
  %42 = load ptr, ptr %5, align 8, !tbaa !3
  %43 = load i32, ptr %9, align 4, !tbaa !8
  %44 = call i32 @ddIsVarHandled(ptr noundef %42, i32 noundef %43)
  %45 = icmp ne i32 %44, 0
  br i1 %45, label %46, label %69

46:                                               ; preds = %41, %36
  %47 = load ptr, ptr %5, align 8, !tbaa !3
  %48 = load i32, ptr %8, align 4, !tbaa !8
  %49 = call i32 @Cudd_bddIsVarToBeGrouped(ptr noundef %47, i32 noundef %48)
  %50 = icmp ne i32 %49, 0
  br i1 %50, label %56, label %51

51:                                               ; preds = %46
  %52 = load ptr, ptr %5, align 8, !tbaa !3
  %53 = load i32, ptr %9, align 4, !tbaa !8
  %54 = call i32 @Cudd_bddIsVarToBeGrouped(ptr noundef %52, i32 noundef %53)
  %55 = icmp ne i32 %54, 0
  br i1 %55, label %56, label %68

56:                                               ; preds = %51, %46
  %57 = load ptr, ptr %5, align 8, !tbaa !3
  %58 = getelementptr inbounds nuw %struct.DdManager, ptr %57, i32 0, i32 23
  %59 = load i32, ptr %58, align 4, !tbaa !43
  %60 = load ptr, ptr %5, align 8, !tbaa !3
  %61 = getelementptr inbounds nuw %struct.DdManager, ptr %60, i32 0, i32 36
  %62 = load i32, ptr %61, align 8, !tbaa !44
  %63 = sub i32 %59, %62
  %64 = load i32, ptr @originalSize, align 4, !tbaa !8
  %65 = icmp ule i32 %63, %64
  br i1 %65, label %66, label %67

66:                                               ; preds = %56
  store i32 1, ptr %4, align 4
  store i32 1, ptr %10, align 4
  br label %71

67:                                               ; preds = %56
  br label %68

68:                                               ; preds = %67, %51
  br label %69

69:                                               ; preds = %68, %41
  br label %70

70:                                               ; preds = %69, %30
  store i32 0, ptr %4, align 4
  store i32 1, ptr %10, align 4
  br label %71

71:                                               ; preds = %70, %66, %29
  call void @llvm.lifetime.end.p0(i64 4, ptr %9) #6
  call void @llvm.lifetime.end.p0(i64 4, ptr %8) #6
  %72 = load i32, ptr %4, align 4
  ret i32 %72
}