; Function Attrs: nounwind uwtable
define internal range(i32 0, 2) i32 @ddVarGroupCheck(ptr noundef %0, i32 noundef %1, i32 noundef %2) #0 {
  %4 = getelementptr inbounds nuw i8, ptr %0, i64 328
  %5 = load ptr, ptr %4, align 8, !tbaa !27
  %6 = sext i32 %1 to i64
  %7 = getelementptr inbounds i32, ptr %5, i64 %6
  %8 = load i32, ptr %7, align 4, !tbaa !25
  %9 = sext i32 %2 to i64
  %10 = getelementptr inbounds i32, ptr %5, i64 %9
  %11 = load i32, ptr %10, align 4, !tbaa !25
  %12 = tail call i32 @Cudd_bddIsVarToBeUngrouped(ptr noundef %0, i32 noundef %8) #11
  %.not = icmp eq i32 %12, 0
  br i1 %.not, label %13, label %51

13:                                               ; preds = %3
  %14 = tail call i32 @Cudd_bddReadPairIndex(ptr noundef nonnull %0, i32 noundef %8) #11
  %15 = icmp eq i32 %14, %11
  br i1 %15, label %16, label %50

16:                                               ; preds = %13
  %17 = getelementptr inbounds nuw i8, ptr %0, i64 136
  %18 = load i32, ptr %17, align 8, !tbaa !3
  %19 = icmp sge i32 %8, %18
  %20 = icmp slt i32 %8, 0
  %or.cond.i = or i1 %20, %19
  br i1 %or.cond.i, label %ddIsVarHandled.exit.thread, label %ddIsVarHandled.exit

ddIsVarHandled.exit:                              ; preds = %16
  %21 = getelementptr inbounds nuw i8, ptr %0, i64 152
  %22 = load ptr, ptr %21, align 8, !tbaa !31
  %23 = getelementptr inbounds nuw i8, ptr %0, i64 312
  %24 = load ptr, ptr %23, align 8, !tbaa !24
  %25 = zext nneg i32 %8 to i64
  %26 = getelementptr inbounds nuw i32, ptr %24, i64 %25
  %27 = load i32, ptr %26, align 4, !tbaa !25
  %28 = sext i32 %27 to i64
  %29 = getelementptr inbounds %struct.DdSubtable, ptr %22, i64 %28, i32 10
  %30 = load i32, ptr %29, align 4, !tbaa !54
  %.not20 = icmp eq i32 %30, 0
  br i1 %.not20, label %31, label %ddIsVarHandled.exit.thread

31:                                               ; preds = %ddIsVarHandled.exit
  %32 = icmp sge i32 %11, %18
  %33 = icmp slt i32 %11, 0
  %or.cond.i25 = or i1 %33, %32
  br i1 %or.cond.i25, label %ddIsVarHandled.exit.thread, label %ddIsVarHandled.exit27

ddIsVarHandled.exit27:                            ; preds = %31
  %34 = zext nneg i32 %11 to i64
  %35 = getelementptr inbounds nuw i32, ptr %24, i64 %34
  %36 = load i32, ptr %35, align 4, !tbaa !25
  %37 = sext i32 %36 to i64
  %38 = getelementptr inbounds %struct.DdSubtable, ptr %22, i64 %37, i32 10
  %39 = load i32, ptr %38, align 4, !tbaa !54
  %.not21 = icmp eq i32 %39, 0
  br i1 %.not21, label %50, label %ddIsVarHandled.exit.thread

ddIsVarHandled.exit.thread:                       ; preds = %31, %16, %ddIsVarHandled.exit27, %ddIsVarHandled.exit
  %40 = tail call i32 @Cudd_bddIsVarToBeGrouped(ptr noundef nonnull %0, i32 noundef %8) #11
  %.not22 = icmp eq i32 %40, 0
  br i1 %.not22, label %41, label %43

41:                                               ; preds = %ddIsVarHandled.exit.thread
  %42 = tail call i32 @Cudd_bddIsVarToBeGrouped(ptr noundef nonnull %0, i32 noundef %11) #11
  %.not23 = icmp eq i32 %42, 0
  br i1 %.not23, label %50, label %43

43:                                               ; preds = %41, %ddIsVarHandled.exit.thread
  %44 = getelementptr inbounds nuw i8, ptr %0, i64 228
  %45 = load i32, ptr %44, align 4, !tbaa !42
  %46 = getelementptr inbounds nuw i8, ptr %0, i64 304
  %47 = load i32, ptr %46, align 8, !tbaa !43
  %48 = sub i32 %45, %47
  %49 = load i32, ptr @originalSize, align 4, !tbaa !25
  %.not24 = icmp ugt i32 %48, %49
  br i1 %.not24, label %50, label %51

50:                                               ; preds = %ddIsVarHandled.exit27, %43, %41, %13
  br label %51

51:                                               ; preds = %43, %3, %50
  %.0 = phi i32 [ 0, %50 ], [ 0, %3 ], [ 1, %43 ]
  ret i32 %.0
}